; Function Attrs: mustprogress uwtable
define hidden void @_ZN4cvc58internal6theory11quantifiers22ExpressionMinerManagerC2ERNS0_3EnvE(ptr noundef nonnull align 8 dereferenceable(608) %0, ptr noundef nonnull align 8 dereferenceable(696) %1) unnamed_addr #3 align 2 personality ptr @__gxx_personality_v0 {
  tail call void @_ZN4cvc58internal6EnvObjC2ERNS0_3EnvE(ptr noundef nonnull align 8 dereferenceable(16) %0, ptr noundef nonnull align 8 dereferenceable(696) %1)
  store ptr getelementptr inbounds nuw inrange(-16, 16) (i8, ptr @_ZTVN4cvc58internal6theory11quantifiers22ExpressionMinerManagerE, i64 16), ptr %0, align 8, !tbaa !3
  %3 = getelementptr inbounds nuw i8, ptr %0, i64 16
  store i8 0, ptr %3, align 8, !tbaa !6
  %4 = getelementptr inbounds nuw i8, ptr %0, i64 24
  tail call void @_ZN4cvc58internal6theory11quantifiers22SolutionFilterStrengthC1ERNS0_3EnvE(ptr noundef nonnull align 8 dereferenceable(560) %4, ptr noundef nonnull align 8 dereferenceable(696) %1)
  %5 = getelementptr inbounds nuw i8, ptr %0, i64 584
  tail call void @llvm.memset.p0.i64(ptr noundef nonnull align 8 dereferenceable(24) %5, i8 0, i64 24, i1 false)
  ret void
}